target datalayout = "e-m:e-p270:32:32-p271:32:32-p272:64:64-i64:64-i128:128-f80:128-n8:16:32:64-S128"
target triple = "x86_64-pc-linux-gnu"

; Function Attrs: mustprogress uwtable
define void @_ZN4toku12lock_request12report_waitsEPSt6vectorINS_14lock_wait_infoESaIS2_EEPFvPvS5_ES6_(ptr noundef %0, ptr noundef %1, ptr noundef %2) #0 align 2 {
  %4 = alloca ptr, align 8
  %5 = alloca ptr, align 8
  %6 = alloca ptr, align 8
  store ptr %0, ptr %4, align 8, !tbaa !103
  store ptr %1, ptr %5, align 8, !tbaa !52
  store ptr %2, ptr %6, align 8, !tbaa !52
  %7 = load ptr, ptr %5, align 8, !tbaa !52
  %8 = icmp ne ptr %7, null
  br i1 %8, label %9, label %13

9:                                                ; preds = %3
  %10 = load ptr, ptr %5, align 8, !tbaa !52
  %11 = load ptr, ptr %6, align 8, !tbaa !52
  %12 = load ptr, ptr %4, align 8, !tbaa !103
  call void %10(ptr noundef %11, ptr noundef %12)
  br label %13

13:                                               ; preds = %9, %3
  ret void
}