; Function Attrs: mustprogress uwtable
define void @_ZN4toku12lock_request12report_waitsEPSt6vectorINS_14lock_wait_infoESaIS2_EEPFvPvS5_ES6_(ptr noundef %0, ptr noundef readonly %1, ptr noundef %2) local_unnamed_addr #0 align 2 {
  %.not = icmp eq ptr %1, null
  br i1 %.not, label %5, label %4

4:                                                ; preds = %3
  tail call void %1(ptr noundef %2, ptr noundef %0)
  br label %5

5:                                                ; preds = %4, %3
  ret void
}